target datalayout = "e-m:e-p270:32:32-p271:32:32-p272:64:64-i64:64-i128:128-f80:128-n8:16:32:64-S128"
target triple = "x86_64-pc-linux-gnu"

%struct.lexbor_bst = type { ptr, ptr, i64 }
%struct.lexbor_bst_entry = type { ptr, ptr, ptr, ptr, ptr, i64 }

; Function Attrs: nounwind uwtable
define hidden ptr @lexbor_bst_entry_make(ptr noundef %0, i64 noundef %1) #0 {
  %3 = alloca ptr, align 8
  %4 = alloca ptr, align 8
  %5 = alloca i64, align 8
  %6 = alloca ptr, align 8
  store ptr %0, ptr %4, align 8
  store i64 %1, ptr %5, align 8
  %7 = load ptr, ptr %4, align 8
  %8 = getelementptr inbounds %struct.lexbor_bst, ptr %7, i32 0, i32 0
  %9 = load ptr, ptr %8, align 8
  %10 = call ptr @lexbor_dobject_calloc(ptr noundef %9)
  store ptr %10, ptr %6, align 8
  %11 = load ptr, ptr %6, align 8
  %12 = icmp eq ptr %11, null
  br i1 %12, label %13, label %14

13:                                               ; preds = %2
  store ptr null, ptr %3, align 8
  br label %23

14:                                               ; preds = %2
  %15 = load i64, ptr %5, align 8
  %16 = load ptr, ptr %6, align 8
  %17 = getelementptr inbounds %struct.lexbor_bst_entry, ptr %16, i32 0, i32 5
  store i64 %15, ptr %17, align 8
  %18 = load ptr, ptr %4, align 8
  %19 = getelementptr inbounds %struct.lexbor_bst, ptr %18, i32 0, i32 2
  %20 = load i64, ptr %19, align 8
  %21 = add i64 %20, 1
  store i64 %21, ptr %19, align 8
  %22 = load ptr, ptr %6, align 8
  store ptr %22, ptr %3, align 8
  br label %23

23:                                               ; preds = %14, %13
  %24 = load ptr, ptr %3, align 8
  ret ptr %24
}

; Function Attrs: nounwind uwtable
define hidden ptr @lexbor_bst_insert_not_exists(ptr noundef %0, ptr noundef %1, i64 noundef %2) #0 {
  %4 = alloca ptr, align 8
  %5 = alloca ptr, align 8
  %6 = alloca ptr, align 8
  %7 = alloca i64, align 8
  %8 = alloca ptr, align 8
  store ptr %0, ptr %5, align 8
  store ptr %1, ptr %6, align 8
  store i64 %2, ptr %7, align 8
  %9 = load ptr, ptr %6, align 8
  %10 = load ptr, ptr %9, align 8
  %11 = icmp eq ptr %10, null
  br i1 %11, label %12, label %19

12:                                               ; preds = %3
  %13 = load ptr, ptr %5, align 8
  %14 = load i64, ptr %7, align 8
  %15 = call ptr @lexbor_bst_entry_make(ptr noundef %13, i64 noundef %14)
  %16 = load ptr, ptr %6, align 8
  store ptr %15, ptr %16, align 8
  %17 = load ptr, ptr %6, align 8
  %18 = load ptr, ptr %17, align 8
  store ptr %18, ptr %4, align 8
  br label %88

19:                                               ; preds = %3
  %20 = load ptr, ptr %6, align 8
  %21 = load ptr, ptr %20, align 8
  store ptr %21, ptr %8, align 8
  br label %22

22:                                               ; preds = %86, %19
  %23 = load ptr, ptr %8, align 8
  %24 = icmp ne ptr %23, null
  br i1 %24, label %25, label %87

25:                                               ; preds = %22
  %26 = load i64, ptr %7, align 8
  %27 = load ptr, ptr %8, align 8
  %28 = getelementptr inbounds %struct.lexbor_bst_entry, ptr %27, i32 0, i32 5
  %29 = load i64, ptr %28, align 8
  %30 = icmp eq i64 %26, %29
  br i1 %30, label %31, label %33

31:                                               ; preds = %25
  %32 = load ptr, ptr %8, align 8
  store ptr %32, ptr %4, align 8
  br label %88

33:                                               ; preds = %25
  %34 = load i64, ptr %7, align 8
  %35 = load ptr, ptr %8, align 8
  %36 = getelementptr inbounds %struct.lexbor_bst_entry, ptr %35, i32 0, i32 5
  %37 = load i64, ptr %36, align 8
  %38 = icmp ugt i64 %34, %37
  br i1 %38, label %39, label %62

39:                                               ; preds = %33
  %40 = load ptr, ptr %8, align 8
  %41 = getelementptr inbounds %struct.lexbor_bst_entry, ptr %40, i32 0, i32 1
  %42 = load ptr, ptr %41, align 8
  %43 = icmp eq ptr %42, null
  br i1 %43, label %44, label %58

44:                                               ; preds = %39
  %45 = load ptr, ptr %5, align 8
  %46 = load i64, ptr %7, align 8
  %47 = call ptr @lexbor_bst_entry_make(ptr noundef %45, i64 noundef %46)
  %48 = load ptr, ptr %8, align 8
  %49 = getelementptr inbounds %struct.lexbor_bst_entry, ptr %48, i32 0, i32 1
  store ptr %47, ptr %49, align 8
  %50 = load ptr, ptr %8, align 8
  %51 = load ptr, ptr %8, align 8
  %52 = getelementptr inbounds %struct.lexbor_bst_entry, ptr %51, i32 0, i32 1
  %53 = load ptr, ptr %52, align 8
  %54 = getelementptr inbounds %struct.lexbor_bst_entry, ptr %53, i32 0, i32 4
  store ptr %50, ptr %54, align 8
  %55 = load ptr, ptr %8, align 8
  %56 = getelementptr inbounds %struct.lexbor_bst_entry, ptr %55, i32 0, i32 1
  %57 = load ptr, ptr %56, align 8
  store ptr %57, ptr %4, align 8
  br label %88

58:                                               ; preds = %39
  %59 = load ptr, ptr %8, align 8
  %60 = getelementptr inbounds %struct.lexbor_bst_entry, ptr %59, i32 0, i32 1
  %61 = load ptr, ptr %60, align 8
  store ptr %61, ptr %8, align 8
  br label %85

62:                                               ; preds = %33
  %63 = load ptr, ptr %8, align 8
  %64 = getelementptr inbounds %struct.lexbor_bst_entry, ptr %63, i32 0, i32 2
  %65 = load ptr, ptr %64, align 8
  %66 = icmp eq ptr %65, null
  br i1 %66, label %67, label %81

67:                                               ; preds = %62
  %68 = load ptr, ptr %5, align 8
  %69 = load i64, ptr %7, align 8
  %70 = call ptr @lexbor_bst_entry_make(ptr noundef %68, i64 noundef %69)
  %71 = load ptr, ptr %8, align 8
  %72 = getelementptr inbounds %struct.lexbor_bst_entry, ptr %71, i32 0, i32 2
  store ptr %70, ptr %72, align 8
  %73 = load ptr, ptr %8, align 8
  %74 = load ptr, ptr %8, align 8
  %75 = getelementptr inbounds %struct.lexbor_bst_entry, ptr %74, i32 0, i32 2
  %76 = load ptr, ptr %75, align 8
  %77 = getelementptr inbounds %struct.lexbor_bst_entry, ptr %76, i32 0, i32 4
  store ptr %73, ptr %77, align 8
  %78 = load ptr, ptr %8, align 8
  %79 = getelementptr inbounds %struct.lexbor_bst_entry, ptr %78, i32 0, i32 2
  %80 = load ptr, ptr %79, align 8
  store ptr %80, ptr %4, align 8
  br label %88

81:                                               ; preds = %62
  %82 = load ptr, ptr %8, align 8
  %83 = getelementptr inbounds %struct.lexbor_bst_entry, ptr %82, i32 0, i32 2
  %84 = load ptr, ptr %83, align 8
  store ptr %84, ptr %8, align 8
  br label %85

85:                                               ; preds = %81, %58
  br label %86

86:                                               ; preds = %85
  br label %22

87:                                               ; preds = %22
  store ptr null, ptr %4, align 8
  br label %88

88:                                               ; preds = %87, %67, %44, %31, %12
  %89 = load ptr, ptr %4, align 8
  ret ptr %89
}