; Function Attrs: nounwind uwtable
define hidden ptr @lexbor_bst_insert_not_exists(ptr nocapture noundef %0, ptr nocapture noundef %1, i64 noundef %2) local_unnamed_addr #0 {
  %4 = load ptr, ptr %1, align 8
  %5 = icmp eq ptr %4, null
  br i1 %5, label %9, label %.preheader

.preheader:                                       ; preds = %3
  %6 = getelementptr inbounds i8, ptr %4, i64 40
  %7 = load i64, ptr %6, align 8
  %8 = icmp eq i64 %7, %2
  br i1 %8, label %.loopexit, label %.lr.ph

9:                                                ; preds = %3
  %10 = load ptr, ptr %0, align 8
  %11 = tail call ptr @lexbor_dobject_calloc(ptr noundef %10) #5
  %12 = icmp eq ptr %11, null
  br i1 %12, label %lexbor_bst_entry_make.exit, label %13

13:                                               ; preds = %9
  %14 = getelementptr inbounds i8, ptr %11, i64 40
  store i64 %2, ptr %14, align 8
  %15 = getelementptr inbounds i8, ptr %0, i64 16
  %16 = load i64, ptr %15, align 8
  %17 = add i64 %16, 1
  store i64 %17, ptr %15, align 8
  br label %lexbor_bst_entry_make.exit

lexbor_bst_entry_make.exit:                       ; preds = %9, %13
  store ptr %11, ptr %1, align 8
  br label %.loopexit

.lr.ph:                                           ; preds = %.preheader, %52
  %18 = phi i64 [ %54, %52 ], [ %7, %.preheader ]
  %.041 = phi ptr [ %.1, %52 ], [ %4, %.preheader ]
  %19 = icmp ult i64 %18, %2
  br i1 %19, label %20, label %36

20:                                               ; preds = %.lr.ph
  %21 = getelementptr inbounds i8, ptr %.041, i64 8
  %22 = load ptr, ptr %21, align 8
  %23 = icmp eq ptr %22, null
  br i1 %23, label %24, label %52

24:                                               ; preds = %20
  %25 = getelementptr inbounds i8, ptr %.041, i64 8
  %26 = load ptr, ptr %0, align 8
  %27 = tail call ptr @lexbor_dobject_calloc(ptr noundef %26) #5
  %28 = icmp eq ptr %27, null
  br i1 %28, label %lexbor_bst_entry_make.exit34, label %29

29:                                               ; preds = %24
  %30 = getelementptr inbounds i8, ptr %27, i64 40
  store i64 %2, ptr %30, align 8
  %31 = getelementptr inbounds i8, ptr %0, i64 16
  %32 = load i64, ptr %31, align 8
  %33 = add i64 %32, 1
  store i64 %33, ptr %31, align 8
  br label %lexbor_bst_entry_make.exit34

lexbor_bst_entry_make.exit34:                     ; preds = %24, %29
  store ptr %27, ptr %25, align 8
  %34 = getelementptr inbounds i8, ptr %27, i64 32
  store ptr %.041, ptr %34, align 8
  %35 = load ptr, ptr %25, align 8
  br label %.loopexit

36:                                               ; preds = %.lr.ph
  %37 = getelementptr inbounds i8, ptr %.041, i64 16
  %38 = load ptr, ptr %37, align 8
  %39 = icmp eq ptr %38, null
  br i1 %39, label %40, label %52

40:                                               ; preds = %36
  %41 = getelementptr inbounds i8, ptr %.041, i64 16
  %42 = load ptr, ptr %0, align 8
  %43 = tail call ptr @lexbor_dobject_calloc(ptr noundef %42) #5
  %44 = icmp eq ptr %43, null
  br i1 %44, label %lexbor_bst_entry_make.exit35, label %45

45:                                               ; preds = %40
  %46 = getelementptr inbounds i8, ptr %43, i64 40
  store i64 %2, ptr %46, align 8
  %47 = getelementptr inbounds i8, ptr %0, i64 16
  %48 = load i64, ptr %47, align 8
  %49 = add i64 %48, 1
  store i64 %49, ptr %47, align 8
  br label %lexbor_bst_entry_make.exit35

lexbor_bst_entry_make.exit35:                     ; preds = %40, %45
  store ptr %43, ptr %41, align 8
  %50 = getelementptr inbounds i8, ptr %43, i64 32
  store ptr %.041, ptr %50, align 8
  %51 = load ptr, ptr %41, align 8
  br label %.loopexit

52:                                               ; preds = %36, %20
  %.1 = phi ptr [ %22, %20 ], [ %38, %36 ]
  %53 = getelementptr inbounds i8, ptr %.1, i64 40
  %54 = load i64, ptr %53, align 8
  %55 = icmp eq i64 %54, %2
  br i1 %55, label %.loopexit, label %.lr.ph

.loopexit:                                        ; preds = %52, %.preheader, %lexbor_bst_entry_make.exit35, %lexbor_bst_entry_make.exit34, %lexbor_bst_entry_make.exit
  %.028 = phi ptr [ %11, %lexbor_bst_entry_make.exit ], [ %35, %lexbor_bst_entry_make.exit34 ], [ %51, %lexbor_bst_entry_make.exit35 ], [ %4, %.preheader ], [ %.1, %52 ]
  ret ptr %.028
}